target datalayout = "e-m:e-p270:32:32-p271:32:32-p272:64:64-i64:64-i128:128-f80:128-n8:16:32:64-S128"
target triple = "x86_64-pc-linux-gnu"

%struct._CharList = type { ptr, ptr }

@.str = private unnamed_addr constant [2 x i8] c"\22\00", align 1

; Function Attrs: nounwind uwtable
define dso_local ptr @pkg_writeCharListWrap(ptr noundef %0, ptr noundef %1, ptr noundef %2, ptr noundef %3, i32 noundef %4) #0 {
  %6 = alloca ptr, align 8
  %7 = alloca ptr, align 8
  %8 = alloca ptr, align 8
  %9 = alloca ptr, align 8
  %10 = alloca i32, align 4
  %11 = alloca i32, align 4
  %12 = alloca [1024 x i8], align 16
  store ptr %0, ptr %6, align 8, !tbaa !4
  store ptr %1, ptr %7, align 8, !tbaa !9
  store ptr %2, ptr %8, align 8, !tbaa !11
  store ptr %3, ptr %9, align 8, !tbaa !11
  store i32 %4, ptr %10, align 4, !tbaa !13
  call void @llvm.lifetime.start.p0(i64 4, ptr %11) #7
  store i32 0, ptr %11, align 4, !tbaa !13
  call void @llvm.lifetime.start.p0(i64 1024, ptr %12) #7
  br label %13

13:                                               ; preds = %133, %5
  %14 = load ptr, ptr %7, align 8, !tbaa !9
  %15 = icmp ne ptr %14, null
  br i1 %15, label %16, label %137

16:                                               ; preds = %13
  %17 = load ptr, ptr %7, align 8, !tbaa !9
  %18 = getelementptr inbounds nuw %struct._CharList, ptr %17, i32 0, i32 0
  %19 = load ptr, ptr %18, align 8, !tbaa !15
  %20 = icmp ne ptr %19, null
  br i1 %20, label %21, label %105

21:                                               ; preds = %16
  %22 = getelementptr inbounds [1024 x i8], ptr %12, i64 0, i64 0
  %23 = load ptr, ptr %7, align 8, !tbaa !9
  %24 = getelementptr inbounds nuw %struct._CharList, ptr %23, i32 0, i32 0
  %25 = load ptr, ptr %24, align 8, !tbaa !15
  %26 = call ptr @strncpy(ptr noundef %22, ptr noundef %25, i64 noundef 1020) #7
  %27 = getelementptr inbounds [1024 x i8], ptr %12, i64 0, i64 1019
  store i8 0, ptr %27, align 1, !tbaa !17
  %28 = load i32, ptr %10, align 4, !tbaa !13
  %29 = icmp slt i32 %28, 0
  br i1 %29, label %30, label %54

30:                                               ; preds = %21
  %31 = getelementptr inbounds [1024 x i8], ptr %12, i64 0, i64 0
  %32 = call i64 @strlen(ptr noundef %31) #8
  %33 = sub i64 %32, 1
  %34 = getelementptr inbounds nuw [1024 x i8], ptr %12, i64 0, i64 %33
  %35 = load i8, ptr %34, align 1, !tbaa !17
  %36 = sext i8 %35 to i32
  %37 = icmp eq i32 %36, 34
  br i1 %37, label %38, label %43

38:                                               ; preds = %30
  %39 = getelementptr inbounds [1024 x i8], ptr %12, i64 0, i64 0
  %40 = call i64 @strlen(ptr noundef %39) #8
  %41 = sub i64 %40, 1
  %42 = getelementptr inbounds nuw [1024 x i8], ptr %12, i64 0, i64 %41
  store i8 0, ptr %42, align 1, !tbaa !17
  br label %43

43:                                               ; preds = %38, %30
  %44 = getelementptr inbounds [1024 x i8], ptr %12, i64 0, i64 0
  %45 = load i8, ptr %44, align 16, !tbaa !17
  %46 = sext i8 %45 to i32
  %47 = icmp eq i32 %46, 34
  br i1 %47, label %48, label %53

48:                                               ; preds = %43
  %49 = getelementptr inbounds [1024 x i8], ptr %12, i64 0, i64 0
  %50 = getelementptr inbounds [1024 x i8], ptr %12, i64 0, i64 0
  %51 = getelementptr inbounds i8, ptr %50, i64 1
  %52 = call ptr @strcpy(ptr noundef %49, ptr noundef %51) #7
  br label %53

53:                                               ; preds = %48, %43
  br label %91

54:                                               ; preds = %21
  %55 = load i32, ptr %10, align 4, !tbaa !13
  %56 = icmp sgt i32 %55, 0
  br i1 %56, label %57, label %90

57:                                               ; preds = %54
  %58 = load ptr, ptr %7, align 8, !tbaa !9
  %59 = getelementptr inbounds nuw %struct._CharList, ptr %58, i32 0, i32 0
  %60 = load ptr, ptr %59, align 8, !tbaa !15
  %61 = getelementptr inbounds i8, ptr %60, i64 0
  %62 = load i8, ptr %61, align 1, !tbaa !17
  %63 = sext i8 %62 to i32
  %64 = icmp ne i32 %63, 34
  br i1 %64, label %65, label %73

65:                                               ; preds = %57
  %66 = getelementptr inbounds [1024 x i8], ptr %12, i64 0, i64 0
  %67 = call ptr @strcpy(ptr noundef %66, ptr noundef @.str) #7
  %68 = getelementptr inbounds [1024 x i8], ptr %12, i64 0, i64 0
  %69 = load ptr, ptr %7, align 8, !tbaa !9
  %70 = getelementptr inbounds nuw %struct._CharList, ptr %69, i32 0, i32 0
  %71 = load ptr, ptr %70, align 8, !tbaa !15
  %72 = call ptr @strncat(ptr noundef %68, ptr noundef %71, i64 noundef 1020) #7
  br label %73

73:                                               ; preds = %65, %57
  %74 = load ptr, ptr %7, align 8, !tbaa !9
  %75 = getelementptr inbounds nuw %struct._CharList, ptr %74, i32 0, i32 0
  %76 = load ptr, ptr %75, align 8, !tbaa !15
  %77 = load ptr, ptr %7, align 8, !tbaa !9
  %78 = getelementptr inbounds nuw %struct._CharList, ptr %77, i32 0, i32 0
  %79 = load ptr, ptr %78, align 8, !tbaa !15
  %80 = call i64 @strlen(ptr noundef %79) #8
  %81 = sub i64 %80, 1
  %82 = getelementptr inbounds nuw i8, ptr %76, i64 %81
  %83 = load i8, ptr %82, align 1, !tbaa !17
  %84 = sext i8 %83 to i32
  %85 = icmp ne i32 %84, 34
  br i1 %85, label %86, label %89

86:                                               ; preds = %73
  %87 = getelementptr inbounds [1024 x i8], ptr %12, i64 0, i64 0
  %88 = call ptr @strcat(ptr noundef %87, ptr noundef @.str) #7
  br label %89

89:                                               ; preds = %86, %73
  br label %90

90:                                               ; preds = %89, %54
  br label %91

91:                                               ; preds = %90, %53
  %92 = load ptr, ptr %6, align 8, !tbaa !4
  %93 = getelementptr inbounds [1024 x i8], ptr %12, i64 0, i64 0
  %94 = getelementptr inbounds [1024 x i8], ptr %12, i64 0, i64 0
  %95 = call i64 @strlen(ptr noundef %94) #8
  %96 = trunc i64 %95 to i32
  %97 = call i32 @T_FileStream_write(ptr noundef %92, ptr noundef %93, i32 noundef %96)
  %98 = load ptr, ptr %7, align 8, !tbaa !9
  %99 = getelementptr inbounds nuw %struct._CharList, ptr %98, i32 0, i32 0
  %100 = load ptr, ptr %99, align 8, !tbaa !15
  %101 = call i64 @strlen(ptr noundef %100) #8
  %102 = trunc i64 %101 to i32
  %103 = load i32, ptr %11, align 4, !tbaa !13
  %104 = add nsw i32 %103, %102
  store i32 %104, ptr %11, align 4, !tbaa !13
  br label %105

105:                                              ; preds = %91, %16
  %106 = load ptr, ptr %7, align 8, !tbaa !9
  %107 = getelementptr inbounds nuw %struct._CharList, ptr %106, i32 0, i32 1
  %108 = load ptr, ptr %107, align 8, !tbaa !18
  %109 = icmp ne ptr %108, null
  br i1 %109, label %110, label %133

110:                                              ; preds = %105
  %111 = load ptr, ptr %8, align 8, !tbaa !11
  %112 = icmp ne ptr %111, null
  br i1 %112, label %113, label %133

113:                                              ; preds = %110
  %114 = load i32, ptr %11, align 4, !tbaa !13
  %115 = icmp sgt i32 %114, 60
  br i1 %115, label %116, label %126

116:                                              ; preds = %113
  %117 = load ptr, ptr %9, align 8, !tbaa !11
  %118 = icmp ne ptr %117, null
  br i1 %118, label %119, label %126

119:                                              ; preds = %116
  store i32 0, ptr %11, align 4, !tbaa !13
  %120 = load ptr, ptr %6, align 8, !tbaa !4
  %121 = load ptr, ptr %9, align 8, !tbaa !11
  %122 = load ptr, ptr %9, align 8, !tbaa !11
  %123 = call i64 @strlen(ptr noundef %122) #8
  %124 = trunc i64 %123 to i32
  %125 = call i32 @T_FileStream_write(ptr noundef %120, ptr noundef %121, i32 noundef %124)
  br label %126

126:                                              ; preds = %119, %116, %113
  %127 = load ptr, ptr %6, align 8, !tbaa !4
  %128 = load ptr, ptr %8, align 8, !tbaa !11
  %129 = load ptr, ptr %8, align 8, !tbaa !11
  %130 = call i64 @strlen(ptr noundef %129) #8
  %131 = trunc i64 %130 to i32
  %132 = call i32 @T_FileStream_write(ptr noundef %127, ptr noundef %128, i32 noundef %131)
  br label %133

133:                                              ; preds = %126, %110, %105
  %134 = load ptr, ptr %7, align 8, !tbaa !9
  %135 = getelementptr inbounds nuw %struct._CharList, ptr %134, i32 0, i32 1
  %136 = load ptr, ptr %135, align 8, !tbaa !18
  store ptr %136, ptr %7, align 8, !tbaa !9
  br label %13, !llvm.loop !19

137:                                              ; preds = %13
  call void @llvm.lifetime.end.p0(i64 1024, ptr %12) #7
  call void @llvm.lifetime.end.p0(i64 4, ptr %11) #7
  ret ptr null
}