; Function Attrs: nounwind uwtable
define dso_local noalias noundef ptr @pkg_writeCharListWrap(ptr noundef %0, ptr noundef readonly %1, ptr noundef %2, ptr noundef %3, i32 noundef %4) local_unnamed_addr #0 {
  %6 = alloca [1024 x i8], align 16
  call void @llvm.lifetime.start.p0(i64 1024, ptr nonnull %6) #11
  %.not34 = icmp eq ptr %1, null
  br i1 %.not34, label %._crit_edge, label %.lr.ph

.lr.ph:                                           ; preds = %5
  %7 = getelementptr inbounds nuw i8, ptr %6, i64 1019
  %8 = icmp slt i32 %4, 0
  %9 = getelementptr inbounds nuw i8, ptr %6, i64 1
  %10 = icmp ne ptr %2, null
  %11 = icmp ne ptr %3, null
  br i1 %8, label %.lr.ph.split.us, label %.lr.ph.split

.lr.ph.split.us:                                  ; preds = %.lr.ph, %48
  %.036.us = phi i32 [ %.2.us, %48 ], [ 0, %.lr.ph ]
  %.02535.us = phi ptr [ %49, %48 ], [ %1, %.lr.ph ]
  %12 = load ptr, ptr %.02535.us, align 8, !tbaa !4
  %.not30.us = icmp eq ptr %12, null
  br i1 %.not30.us, label %34, label %13

13:                                               ; preds = %.lr.ph.split.us
  %14 = call ptr @strncpy(ptr noundef nonnull dereferenceable(1) %6, ptr noundef nonnull dereferenceable(1) %12, i64 noundef 1020) #11
  store i8 0, ptr %7, align 1, !tbaa !11
  %15 = call i64 @strlen(ptr noundef nonnull dereferenceable(1) %6) #12
  %16 = add i64 %15, -1
  %17 = getelementptr inbounds nuw [1024 x i8], ptr %6, i64 0, i64 %16
  %18 = load i8, ptr %17, align 1, !tbaa !11
  %19 = icmp eq i8 %18, 34
  br i1 %19, label %20, label %21

20:                                               ; preds = %13
  store i8 0, ptr %17, align 1, !tbaa !11
  br label %21

21:                                               ; preds = %20, %13
  %22 = load i8, ptr %6, align 16, !tbaa !11
  %23 = icmp eq i8 %22, 34
  br i1 %23, label %24, label %26

24:                                               ; preds = %21
  %25 = call ptr @strcpy(ptr noundef nonnull dereferenceable(1) %6, ptr noundef nonnull dereferenceable(1) %9) #11
  br label %26

26:                                               ; preds = %24, %21
  %27 = call i64 @strlen(ptr noundef nonnull dereferenceable(1) %6) #12
  %28 = trunc i64 %27 to i32
  %29 = call i32 @T_FileStream_write(ptr noundef %0, ptr noundef nonnull %6, i32 noundef %28) #11
  %30 = load ptr, ptr %.02535.us, align 8, !tbaa !4
  %31 = call i64 @strlen(ptr noundef nonnull dereferenceable(1) %30) #12
  %32 = trunc i64 %31 to i32
  %33 = add nsw i32 %.036.us, %32
  br label %34

34:                                               ; preds = %26, %.lr.ph.split.us
  %.1.us = phi i32 [ %33, %26 ], [ %.036.us, %.lr.ph.split.us ]
  %35 = getelementptr inbounds nuw i8, ptr %.02535.us, i64 8
  %36 = load ptr, ptr %35, align 8, !tbaa !12
  %37 = icmp ne ptr %36, null
  %or.cond.us = and i1 %10, %37
  br i1 %or.cond.us, label %38, label %48

38:                                               ; preds = %34
  %39 = icmp sgt i32 %.1.us, 60
  %or.cond3.us = and i1 %11, %39
  br i1 %or.cond3.us, label %40, label %44

40:                                               ; preds = %38
  %41 = call i64 @strlen(ptr noundef nonnull dereferenceable(1) %3) #12
  %42 = trunc i64 %41 to i32
  %43 = call i32 @T_FileStream_write(ptr noundef %0, ptr noundef nonnull %3, i32 noundef %42) #11
  br label %44

44:                                               ; preds = %40, %38
  %.3.us = phi i32 [ 0, %40 ], [ %.1.us, %38 ]
  %45 = call i64 @strlen(ptr noundef nonnull dereferenceable(1) %2) #12
  %46 = trunc i64 %45 to i32
  %47 = call i32 @T_FileStream_write(ptr noundef %0, ptr noundef nonnull %2, i32 noundef %46) #11
  %.pre60 = load ptr, ptr %35, align 8, !tbaa !12
  br label %48

48:                                               ; preds = %44, %34
  %49 = phi ptr [ %.pre60, %44 ], [ %36, %34 ]
  %.2.us = phi i32 [ %.3.us, %44 ], [ %.1.us, %34 ]
  %.not.us = icmp eq ptr %49, null
  br i1 %.not.us, label %._crit_edge, label %.lr.ph.split.us, !llvm.loop !13

.lr.ph.split:                                     ; preds = %.lr.ph
  %.not31 = icmp eq i32 %4, 0
  br i1 %.not31, label %.lr.ph.split.split.us, label %.lr.ph.split.split

.lr.ph.split.split.us:                            ; preds = %.lr.ph.split, %74
  %.036.us37 = phi i32 [ %.2.us44, %74 ], [ 0, %.lr.ph.split ]
  %.02535.us38 = phi ptr [ %75, %74 ], [ %1, %.lr.ph.split ]
  %50 = load ptr, ptr %.02535.us38, align 8, !tbaa !4
  %.not30.us39 = icmp eq ptr %50, null
  br i1 %.not30.us39, label %60, label %51

51:                                               ; preds = %.lr.ph.split.split.us
  %52 = call ptr @strncpy(ptr noundef nonnull dereferenceable(1) %6, ptr noundef nonnull dereferenceable(1) %50, i64 noundef 1020) #11
  store i8 0, ptr %7, align 1, !tbaa !11
  %53 = call i64 @strlen(ptr noundef nonnull dereferenceable(1) %6) #12
  %54 = trunc i64 %53 to i32
  %55 = call i32 @T_FileStream_write(ptr noundef %0, ptr noundef nonnull %6, i32 noundef %54) #11
  %56 = load ptr, ptr %.02535.us38, align 8, !tbaa !4
  %57 = call i64 @strlen(ptr noundef nonnull dereferenceable(1) %56) #12
  %58 = trunc i64 %57 to i32
  %59 = add nsw i32 %.036.us37, %58
  br label %60

60:                                               ; preds = %51, %.lr.ph.split.split.us
  %.1.us40 = phi i32 [ %59, %51 ], [ %.036.us37, %.lr.ph.split.split.us ]
  %61 = getelementptr inbounds nuw i8, ptr %.02535.us38, i64 8
  %62 = load ptr, ptr %61, align 8, !tbaa !12
  %63 = icmp ne ptr %62, null
  %or.cond.us41 = and i1 %10, %63
  br i1 %or.cond.us41, label %64, label %74

64:                                               ; preds = %60
  %65 = icmp sgt i32 %.1.us40, 60
  %or.cond3.us42 = and i1 %11, %65
  br i1 %or.cond3.us42, label %66, label %70

66:                                               ; preds = %64
  %67 = call i64 @strlen(ptr noundef nonnull dereferenceable(1) %3) #12
  %68 = trunc i64 %67 to i32
  %69 = call i32 @T_FileStream_write(ptr noundef %0, ptr noundef nonnull %3, i32 noundef %68) #11
  br label %70

70:                                               ; preds = %66, %64
  %.3.us43 = phi i32 [ 0, %66 ], [ %.1.us40, %64 ]
  %71 = call i64 @strlen(ptr noundef nonnull dereferenceable(1) %2) #12
  %72 = trunc i64 %71 to i32
  %73 = call i32 @T_FileStream_write(ptr noundef %0, ptr noundef nonnull %2, i32 noundef %72) #11
  %.pre59 = load ptr, ptr %61, align 8, !tbaa !12
  br label %74

74:                                               ; preds = %70, %60
  %75 = phi ptr [ %.pre59, %70 ], [ %62, %60 ]
  %.2.us44 = phi i32 [ %.3.us43, %70 ], [ %.1.us40, %60 ]
  %.not.us45 = icmp eq ptr %75, null
  br i1 %.not.us45, label %._crit_edge, label %.lr.ph.split.split.us, !llvm.loop !13

.lr.ph.split.split:                               ; preds = %.lr.ph.split
  br i1 %10, label %.lr.ph.split.split.split, label %.lr.ph.split.split.split.us

.lr.ph.split.split.split.us:                      ; preds = %.lr.ph.split.split, %95
  %.02535.us47 = phi ptr [ %97, %95 ], [ %1, %.lr.ph.split.split ]
  %76 = load ptr, ptr %.02535.us47, align 8, !tbaa !4
  %.not30.us48 = icmp eq ptr %76, null
  br i1 %.not30.us48, label %95, label %77

77:                                               ; preds = %.lr.ph.split.split.split.us
  %78 = call ptr @strncpy(ptr noundef nonnull dereferenceable(1) %6, ptr noundef nonnull dereferenceable(1) %76, i64 noundef 1020) #11
  store i8 0, ptr %7, align 1, !tbaa !11
  %79 = load ptr, ptr %.02535.us47, align 8, !tbaa !4
  %80 = load i8, ptr %79, align 1, !tbaa !11
  %.not32.us = icmp eq i8 %80, 34
  br i1 %.not32.us, label %84, label %81

81:                                               ; preds = %77
  store i16 34, ptr %6, align 16
  %82 = load ptr, ptr %.02535.us47, align 8, !tbaa !4
  %83 = call ptr @strncat(ptr noundef nonnull dereferenceable(1) %6, ptr noundef nonnull dereferenceable(1) %82, i64 noundef 1020) #11
  %.pre = load ptr, ptr %.02535.us47, align 8, !tbaa !4
  br label %84

84:                                               ; preds = %81, %77
  %85 = phi ptr [ %.pre, %81 ], [ %79, %77 ]
  %86 = call i64 @strlen(ptr noundef nonnull dereferenceable(1) %85) #12
  %87 = getelementptr i8, ptr %85, i64 %86
  %88 = getelementptr i8, ptr %87, i64 -1
  %89 = load i8, ptr %88, align 1, !tbaa !11
  %.not33.us = icmp eq i8 %89, 34
  br i1 %.not33.us, label %91, label %90

90:                                               ; preds = %84
  %strlen.us = call i64 @strlen(ptr nonnull dereferenceable(1) %6)
  %endptr.us = getelementptr inbounds i8, ptr %6, i64 %strlen.us
  store i16 34, ptr %endptr.us, align 1
  br label %91

91:                                               ; preds = %90, %84
  %92 = call i64 @strlen(ptr noundef nonnull dereferenceable(1) %6) #12
  %93 = trunc i64 %92 to i32
  %94 = call i32 @T_FileStream_write(ptr noundef %0, ptr noundef nonnull %6, i32 noundef %93) #11
  br label %95

95:                                               ; preds = %91, %.lr.ph.split.split.split.us
  %96 = getelementptr inbounds nuw i8, ptr %.02535.us47, i64 8
  %97 = load ptr, ptr %96, align 8, !tbaa !12
  %.not.us52 = icmp eq ptr %97, null
  br i1 %.not.us52, label %._crit_edge, label %.lr.ph.split.split.split.us, !llvm.loop !13

.lr.ph.split.split.split:                         ; preds = %.lr.ph.split.split, %130
  %.036 = phi i32 [ %.3, %130 ], [ 0, %.lr.ph.split.split ]
  %.02535 = phi ptr [ %.pre58, %130 ], [ %1, %.lr.ph.split.split ]
  %98 = load ptr, ptr %.02535, align 8, !tbaa !4
  %.not30 = icmp eq ptr %98, null
  br i1 %.not30, label %121, label %99

99:                                               ; preds = %.lr.ph.split.split.split
  %100 = call ptr @strncpy(ptr noundef nonnull dereferenceable(1) %6, ptr noundef nonnull dereferenceable(1) %98, i64 noundef 1020) #11
  store i8 0, ptr %7, align 1, !tbaa !11
  %101 = load ptr, ptr %.02535, align 8, !tbaa !4
  %102 = load i8, ptr %101, align 1, !tbaa !11
  %.not32 = icmp eq i8 %102, 34
  br i1 %.not32, label %106, label %103

103:                                              ; preds = %99
  store i16 34, ptr %6, align 16
  %104 = load ptr, ptr %.02535, align 8, !tbaa !4
  %105 = call ptr @strncat(ptr noundef nonnull dereferenceable(1) %6, ptr noundef nonnull dereferenceable(1) %104, i64 noundef 1020) #11
  %.pre57 = load ptr, ptr %.02535, align 8, !tbaa !4
  br label %106

106:                                              ; preds = %103, %99
  %107 = phi ptr [ %.pre57, %103 ], [ %101, %99 ]
  %108 = call i64 @strlen(ptr noundef nonnull dereferenceable(1) %107) #12
  %109 = getelementptr i8, ptr %107, i64 %108
  %110 = getelementptr i8, ptr %109, i64 -1
  %111 = load i8, ptr %110, align 1, !tbaa !11
  %.not33 = icmp eq i8 %111, 34
  br i1 %.not33, label %113, label %112

112:                                              ; preds = %106
  %strlen = call i64 @strlen(ptr nonnull dereferenceable(1) %6)
  %endptr = getelementptr inbounds i8, ptr %6, i64 %strlen
  store i16 34, ptr %endptr, align 1
  br label %113

113:                                              ; preds = %112, %106
  %114 = call i64 @strlen(ptr noundef nonnull dereferenceable(1) %6) #12
  %115 = trunc i64 %114 to i32
  %116 = call i32 @T_FileStream_write(ptr noundef %0, ptr noundef nonnull %6, i32 noundef %115) #11
  %117 = load ptr, ptr %.02535, align 8, !tbaa !4
  %118 = call i64 @strlen(ptr noundef nonnull dereferenceable(1) %117) #12
  %119 = trunc i64 %118 to i32
  %120 = add nsw i32 %.036, %119
  br label %121

121:                                              ; preds = %113, %.lr.ph.split.split.split
  %.1 = phi i32 [ %120, %113 ], [ %.036, %.lr.ph.split.split.split ]
  %122 = getelementptr inbounds nuw i8, ptr %.02535, i64 8
  %123 = load ptr, ptr %122, align 8, !tbaa !12
  %.not53 = icmp eq ptr %123, null
  br i1 %.not53, label %._crit_edge, label %124

124:                                              ; preds = %121
  %125 = icmp sgt i32 %.1, 60
  %or.cond3 = and i1 %11, %125
  br i1 %or.cond3, label %126, label %130

126:                                              ; preds = %124
  %127 = call i64 @strlen(ptr noundef nonnull dereferenceable(1) %3) #12
  %128 = trunc i64 %127 to i32
  %129 = call i32 @T_FileStream_write(ptr noundef %0, ptr noundef nonnull %3, i32 noundef %128) #11
  br label %130

130:                                              ; preds = %124, %126
  %.3 = phi i32 [ 0, %126 ], [ %.1, %124 ]
  %131 = call i64 @strlen(ptr noundef nonnull dereferenceable(1) %2) #12
  %132 = trunc i64 %131 to i32
  %133 = call i32 @T_FileStream_write(ptr noundef %0, ptr noundef nonnull %2, i32 noundef %132) #11
  %.pre58 = load ptr, ptr %122, align 8, !tbaa !12
  %.not = icmp eq ptr %.pre58, null
  br i1 %.not, label %._crit_edge, label %.lr.ph.split.split.split, !llvm.loop !13

._crit_edge:                                      ; preds = %95, %121, %130, %74, %48, %5
  call void @llvm.lifetime.end.p0(i64 1024, ptr nonnull %6) #11
  ret ptr null
}